target datalayout = "e-m:e-p270:32:32-p271:32:32-p272:64:64-i64:64-i128:128-f80:128-n8:16:32:64-S128"
target triple = "x86_64-pc-linux-gnu"

%struct.FunctionCallInfoBaseData = type { ptr, ptr, ptr, i32, i8, i16, [0 x %struct.NullableDatum] }
%struct.NullableDatum = type { i64, i8 }
%struct.nameData = type { [64 x i8] }
%struct.HeapTupleData = type { i32, %struct.ItemPointerData, i32, ptr }
%struct.ItemPointerData = type { %struct.BlockIdData, i16 }
%struct.BlockIdData = type { i16, i16 }
%struct.HeapTupleHeaderData = type { %union.anon, %struct.ItemPointerData, i16, i16, i8, [0 x i8] }
%union.anon = type { %struct.HeapTupleFields }
%struct.HeapTupleFields = type { i32, i32, %union.anon.0 }
%union.anon.0 = type { i32 }
%struct.FormData_pg_collation = type { i32, %struct.nameData, i32, i32, i8, i8, i32 }

@Mode = external global i32, align 4
@.str.4 = private unnamed_addr constant [2 x i8] c"-\00", align 1
@.str.5 = private unnamed_addr constant [3 x i8] c"%u\00", align 1

; Function Attrs: inlinehint nounwind uwtable
define internal i64 @PointerGetDatum(ptr noundef %0) #2 {
  %2 = alloca ptr, align 8
  store ptr %0, ptr %2, align 8
  %3 = load ptr, ptr %2, align 8
  %4 = ptrtoint ptr %3 to i64
  ret i64 %4
}

; Function Attrs: inlinehint nounwind uwtable
define internal ptr @GETSTRUCT(ptr noundef %0) #2 {
  %2 = alloca ptr, align 8
  store ptr %0, ptr %2, align 8
  %3 = load ptr, ptr %2, align 8
  %4 = getelementptr inbounds nuw %struct.HeapTupleData, ptr %3, i32 0, i32 3
  %5 = load ptr, ptr %4, align 8
  %6 = load ptr, ptr %2, align 8
  %7 = getelementptr inbounds nuw %struct.HeapTupleData, ptr %6, i32 0, i32 3
  %8 = load ptr, ptr %7, align 8
  %9 = getelementptr inbounds nuw %struct.HeapTupleHeaderData, ptr %8, i32 0, i32 4
  %10 = load i8, ptr %9, align 2
  %11 = zext i8 %10 to i32
  %12 = sext i32 %11 to i64
  %13 = getelementptr inbounds i8, ptr %5, i64 %12
  ret ptr %13
}

; Function Attrs: inlinehint nounwind uwtable
define internal i64 @ObjectIdGetDatum(i32 noundef %0) #2 {
  %2 = alloca i32, align 4
  store i32 %0, ptr %2, align 4
  %3 = load i32, ptr %2, align 4
  %4 = zext i32 %3 to i64
  ret i64 %4
}

; Function Attrs: inlinehint nounwind uwtable
define internal i64 @CStringGetDatum(ptr noundef %0) #2 {
  %2 = alloca ptr, align 8
  store ptr %0, ptr %2, align 8
  %3 = load ptr, ptr %2, align 8
  %4 = call i64 @PointerGetDatum(ptr noundef %3)
  ret i64 %4
}

; Function Attrs: inlinehint nounwind uwtable
define internal i32 @DatumGetObjectId(i64 noundef %0) #2 {
  %2 = alloca i64, align 8
  store i64 %0, ptr %2, align 8
  %3 = load i64, ptr %2, align 8
  %4 = trunc i64 %3 to i32
  ret i32 %4
}

; Function Attrs: nounwind uwtable
define dso_local i64 @regcollationout(ptr noundef %0) #0 {
  %2 = alloca i64, align 8
  %3 = alloca ptr, align 8
  %4 = alloca i32, align 4
  %5 = alloca ptr, align 8
  %6 = alloca ptr, align 8
  %7 = alloca i32, align 4
  %8 = alloca ptr, align 8
  %9 = alloca ptr, align 8
  %10 = alloca ptr, align 8
  store ptr %0, ptr %3, align 8
  call void @llvm.lifetime.start.p0(i64 4, ptr %4) #8
  %11 = load ptr, ptr %3, align 8
  %12 = getelementptr inbounds nuw %struct.FunctionCallInfoBaseData, ptr %11, i32 0, i32 6
  %13 = getelementptr inbounds [0 x %struct.NullableDatum], ptr %12, i64 0, i64 0
  %14 = getelementptr inbounds nuw %struct.NullableDatum, ptr %13, i32 0, i32 0
  %15 = load i64, ptr %14, align 8
  %16 = call i32 @DatumGetObjectId(i64 noundef %15)
  store i32 %16, ptr %4, align 4
  call void @llvm.lifetime.start.p0(i64 8, ptr %5) #8
  call void @llvm.lifetime.start.p0(i64 8, ptr %6) #8
  %17 = load i32, ptr %4, align 4
  %18 = icmp eq i32 %17, 0
  br i1 %18, label %19, label %23

19:                                               ; preds = %1
  %20 = call ptr @pstrdup(ptr noundef @.str.4)
  store ptr %20, ptr %5, align 8
  %21 = load ptr, ptr %5, align 8
  %22 = call i64 @CStringGetDatum(ptr noundef %21)
  store i64 %22, ptr %2, align 8
  store i32 1, ptr %7, align 4
  br label %64

23:                                               ; preds = %1
  %24 = load i32, ptr %4, align 4
  %25 = call i64 @ObjectIdGetDatum(i32 noundef %24)
  %26 = call ptr @SearchSysCache1(i32 noundef 16, i64 noundef %25)
  store ptr %26, ptr %6, align 8
  %27 = load ptr, ptr %6, align 8
  %28 = icmp ne ptr %27, null
  br i1 %28, label %29, label %56

29:                                               ; preds = %23
  call void @llvm.lifetime.start.p0(i64 8, ptr %8) #8
  %30 = load ptr, ptr %6, align 8
  %31 = call ptr @GETSTRUCT(ptr noundef %30)
  store ptr %31, ptr %8, align 8
  call void @llvm.lifetime.start.p0(i64 8, ptr %9) #8
  %32 = load ptr, ptr %8, align 8
  %33 = getelementptr inbounds nuw %struct.FormData_pg_collation, ptr %32, i32 0, i32 1
  %34 = getelementptr inbounds nuw %struct.nameData, ptr %33, i32 0, i32 0
  %35 = getelementptr inbounds [64 x i8], ptr %34, i64 0, i64 0
  store ptr %35, ptr %9, align 8
  %36 = load i32, ptr @Mode, align 4
  %37 = icmp eq i32 %36, 0
  br i1 %37, label %38, label %41

38:                                               ; preds = %29
  %39 = load ptr, ptr %9, align 8
  %40 = call ptr @pstrdup(ptr noundef %39)
  store ptr %40, ptr %5, align 8
  br label %54

41:                                               ; preds = %29
  call void @llvm.lifetime.start.p0(i64 8, ptr %10) #8
  %42 = load i32, ptr %4, align 4
  %43 = call zeroext i1 @CollationIsVisible(i32 noundef %42)
  br i1 %43, label %44, label %45

44:                                               ; preds = %41
  store ptr null, ptr %10, align 8
  br label %50

45:                                               ; preds = %41
  %46 = load ptr, ptr %8, align 8
  %47 = getelementptr inbounds nuw %struct.FormData_pg_collation, ptr %46, i32 0, i32 2
  %48 = load i32, ptr %47, align 4
  %49 = call ptr @get_namespace_name(i32 noundef %48)
  store ptr %49, ptr %10, align 8
  br label %50

50:                                               ; preds = %45, %44
  %51 = load ptr, ptr %10, align 8
  %52 = load ptr, ptr %9, align 8
  %53 = call ptr @quote_qualified_identifier(ptr noundef %51, ptr noundef %52)
  store ptr %53, ptr %5, align 8
  call void @llvm.lifetime.end.p0(i64 8, ptr %10) #8
  br label %54

54:                                               ; preds = %50, %38
  %55 = load ptr, ptr %6, align 8
  call void @ReleaseSysCache(ptr noundef %55)
  call void @llvm.lifetime.end.p0(i64 8, ptr %9) #8
  call void @llvm.lifetime.end.p0(i64 8, ptr %8) #8
  br label %61

56:                                               ; preds = %23
  %57 = call ptr @palloc(i64 noundef 64)
  store ptr %57, ptr %5, align 8
  %58 = load ptr, ptr %5, align 8
  %59 = load i32, ptr %4, align 4
  %60 = call i32 (ptr, i64, ptr, ...) @pg_snprintf(ptr noundef %58, i64 noundef 64, ptr noundef @.str.5, i32 noundef %59)
  br label %61

61:                                               ; preds = %56, %54
  %62 = load ptr, ptr %5, align 8
  %63 = call i64 @CStringGetDatum(ptr noundef %62)
  store i64 %63, ptr %2, align 8
  store i32 1, ptr %7, align 4
  br label %64

64:                                               ; preds = %61, %19
  call void @llvm.lifetime.end.p0(i64 8, ptr %6) #8
  call void @llvm.lifetime.end.p0(i64 8, ptr %5) #8
  call void @llvm.lifetime.end.p0(i64 4, ptr %4) #8
  %65 = load i64, ptr %2, align 8
  ret i64 %65
}