; Function Attrs: nounwind uwtable
define dso_local i64 @regcollationout(ptr noundef readonly captures(none) %0) local_unnamed_addr #0 {
  %2 = getelementptr inbounds nuw i8, ptr %0, i64 32
  %3 = load i64, ptr %2, align 8
  %4 = trunc i64 %3 to i32
  %5 = icmp eq i32 %4, 0
  br i1 %5, label %6, label %8

6:                                                ; preds = %1
  %7 = tail call ptr @pstrdup(ptr noundef nonnull @.str.4) #9
  br label %34

8:                                                ; preds = %1
  %9 = and i64 %3, 4294967295
  %10 = tail call ptr @SearchSysCache1(i32 noundef 16, i64 noundef %9) #9
  %.not = icmp eq ptr %10, null
  br i1 %.not, label %31, label %11

11:                                               ; preds = %8
  %12 = getelementptr i8, ptr %10, i64 16
  %.val = load ptr, ptr %12, align 8
  %13 = getelementptr inbounds nuw i8, ptr %.val, i64 22
  %14 = load i8, ptr %13, align 2
  %15 = zext i8 %14 to i64
  %16 = getelementptr inbounds nuw i8, ptr %.val, i64 %15
  %17 = getelementptr inbounds nuw i8, ptr %16, i64 4
  %18 = load i32, ptr @Mode, align 4
  %19 = icmp eq i32 %18, 0
  br i1 %19, label %20, label %22

20:                                               ; preds = %11
  %21 = tail call ptr @pstrdup(ptr noundef nonnull %17) #9
  br label %30

22:                                               ; preds = %11
  %23 = tail call zeroext i1 @CollationIsVisible(i32 noundef %4) #9
  br i1 %23, label %28, label %24

24:                                               ; preds = %22
  %25 = getelementptr inbounds nuw i8, ptr %16, i64 68
  %26 = load i32, ptr %25, align 4
  %27 = tail call ptr @get_namespace_name(i32 noundef %26) #9
  br label %28

28:                                               ; preds = %22, %24
  %.0 = phi ptr [ %27, %24 ], [ null, %22 ]
  %29 = tail call ptr @quote_qualified_identifier(ptr noundef %.0, ptr noundef nonnull %17) #9
  br label %30

30:                                               ; preds = %28, %20
  %.017 = phi ptr [ %21, %20 ], [ %29, %28 ]
  tail call void @ReleaseSysCache(ptr noundef nonnull %10) #9
  br label %34

31:                                               ; preds = %8
  %32 = tail call ptr @palloc(i64 noundef 64) #9
  %33 = tail call i32 (ptr, i64, ptr, ...) @pg_snprintf(ptr noundef %32, i64 noundef 64, ptr noundef nonnull @.str.5, i32 noundef %4) #9
  br label %34

34:                                               ; preds = %30, %31, %6
  %.016.in = phi ptr [ %7, %6 ], [ %.017, %30 ], [ %32, %31 ]
  %.016 = ptrtoint ptr %.016.in to i64
  ret i64 %.016
}